target datalayout = "e-m:e-p270:32:32-p271:32:32-p272:64:64-i64:64-i128:128-f80:128-n8:16:32:64-S128"
target triple = "x86_64-pc-linux-gnu"

%"class.icu_77::RegexMatcher" = type { %"class.icu_77::UObject", ptr, ptr, ptr, ptr, ptr, i64, i32, i64, i64, i64, i64, i64, i64, i64, i64, i8, i8, i8, i64, i64, i64, i64, i8, i8, ptr, ptr, ptr, [8 x i64], i32, i32, i32, i32, ptr, ptr, ptr, ptr, i8, i8, i32, ptr, ptr }
%"class.icu_77::UObject" = type { ptr }
%"class.icu_77::RegexStaticSets" = type { [8 x i8], [13 x %"class.icu_77::UnicodeSet"], [13 x %"struct.icu_77::Regex8BitSet"], [3 x %"class.icu_77::UnicodeSet"], %"class.icu_77::UnicodeSet", ptr, ptr }
%"struct.icu_77::Regex8BitSet" = type { [32 x i8] }
%"class.icu_77::UnicodeSet" = type <{ %"class.icu_77::UnicodeFilter", ptr, i32, i32, i8, [7 x i8], ptr, ptr, i32, [4 x i8], ptr, i32, [4 x i8], ptr, ptr, [25 x i32], [4 x i8] }>
%"class.icu_77::UnicodeFilter" = type { %"class.icu_77::UnicodeFunctor", %"class.icu_77::UnicodeMatcher" }
%"class.icu_77::UnicodeFunctor" = type { %"class.icu_77::UObject" }
%"class.icu_77::UnicodeMatcher" = type { ptr }

@_ZN6icu_7715RegexStaticSets11gStaticSetsE = external global ptr, align 8
@_ZTVN6icu_777UObjectE = available_externally unnamed_addr constant { [5 x ptr] } { [5 x ptr] [ptr null, ptr @_ZTIN6icu_777UObjectE, ptr @_ZN6icu_777UObjectD1Ev, ptr @_ZN6icu_777UObjectD0Ev, ptr @_ZNK6icu_777UObject17getDynamicClassIDEv] }, align 8

; Function Attrs: inlinehint mustprogress nounwind uwtable
define internal noundef signext i8 @_ZL9U_FAILURE10UErrorCode(i32 noundef %0) #2 {
  %2 = alloca i32, align 4
  store i32 %0, ptr %2, align 4, !tbaa !15
  %3 = load i32, ptr %2, align 4, !tbaa !15
  %4 = icmp sgt i32 %3, 0
  %5 = zext i1 %4 to i8
  ret i8 %5
}

; Function Attrs: mustprogress nounwind uwtable
define void @_ZN6icu_7712RegexMatcher4initER10UErrorCode(ptr noundef nonnull align 8 dereferenceable(336) %0, ptr noundef nonnull align 4 dereferenceable(4) %1) #0 align 2 {
  %3 = alloca ptr, align 8
  %4 = alloca ptr, align 8
  store ptr %0, ptr %3, align 8, !tbaa !23
  store ptr %1, ptr %4, align 8, !tbaa !22
  %5 = load ptr, ptr %3, align 8
  %6 = getelementptr inbounds nuw %"class.icu_77::RegexMatcher", ptr %5, i32 0, i32 1
  store ptr null, ptr %6, align 8, !tbaa !38
  %7 = getelementptr inbounds nuw %"class.icu_77::RegexMatcher", ptr %5, i32 0, i32 2
  store ptr null, ptr %7, align 8, !tbaa !54
  %8 = getelementptr inbounds nuw %"class.icu_77::RegexMatcher", ptr %5, i32 0, i32 7
  store i32 0, ptr %8, align 8, !tbaa !55
  %9 = getelementptr inbounds nuw %"class.icu_77::RegexMatcher", ptr %5, i32 0, i32 8
  store i64 0, ptr %9, align 8, !tbaa !56
  %10 = getelementptr inbounds nuw %"class.icu_77::RegexMatcher", ptr %5, i32 0, i32 9
  store i64 0, ptr %10, align 8, !tbaa !57
  %11 = getelementptr inbounds nuw %"class.icu_77::RegexMatcher", ptr %5, i32 0, i32 10
  store i64 0, ptr %11, align 8, !tbaa !58
  %12 = getelementptr inbounds nuw %"class.icu_77::RegexMatcher", ptr %5, i32 0, i32 11
  store i64 0, ptr %12, align 8, !tbaa !59
  %13 = getelementptr inbounds nuw %"class.icu_77::RegexMatcher", ptr %5, i32 0, i32 12
  store i64 0, ptr %13, align 8, !tbaa !60
  %14 = getelementptr inbounds nuw %"class.icu_77::RegexMatcher", ptr %5, i32 0, i32 13
  store i64 0, ptr %14, align 8, !tbaa !61
  %15 = getelementptr inbounds nuw %"class.icu_77::RegexMatcher", ptr %5, i32 0, i32 14
  store i64 0, ptr %15, align 8, !tbaa !62
  %16 = getelementptr inbounds nuw %"class.icu_77::RegexMatcher", ptr %5, i32 0, i32 15
  store i64 0, ptr %16, align 8, !tbaa !63
  %17 = getelementptr inbounds nuw %"class.icu_77::RegexMatcher", ptr %5, i32 0, i32 16
  store i8 0, ptr %17, align 8, !tbaa !64
  %18 = getelementptr inbounds nuw %"class.icu_77::RegexMatcher", ptr %5, i32 0, i32 17
  store i8 1, ptr %18, align 1, !tbaa !65
  %19 = getelementptr inbounds nuw %"class.icu_77::RegexMatcher", ptr %5, i32 0, i32 18
  store i8 0, ptr %19, align 2, !tbaa !66
  %20 = getelementptr inbounds nuw %"class.icu_77::RegexMatcher", ptr %5, i32 0, i32 19
  store i64 0, ptr %20, align 8, !tbaa !67
  %21 = getelementptr inbounds nuw %"class.icu_77::RegexMatcher", ptr %5, i32 0, i32 20
  store i64 0, ptr %21, align 8, !tbaa !68
  %22 = getelementptr inbounds nuw %"class.icu_77::RegexMatcher", ptr %5, i32 0, i32 21
  store i64 -1, ptr %22, align 8, !tbaa !69
  %23 = getelementptr inbounds nuw %"class.icu_77::RegexMatcher", ptr %5, i32 0, i32 22
  store i64 0, ptr %23, align 8, !tbaa !70
  %24 = getelementptr inbounds nuw %"class.icu_77::RegexMatcher", ptr %5, i32 0, i32 23
  store i8 0, ptr %24, align 8, !tbaa !71
  %25 = getelementptr inbounds nuw %"class.icu_77::RegexMatcher", ptr %5, i32 0, i32 24
  store i8 0, ptr %25, align 1, !tbaa !72
  %26 = getelementptr inbounds nuw %"class.icu_77::RegexMatcher", ptr %5, i32 0, i32 25
  store ptr null, ptr %26, align 8, !tbaa !73
  %27 = getelementptr inbounds nuw %"class.icu_77::RegexMatcher", ptr %5, i32 0, i32 26
  store ptr null, ptr %27, align 8, !tbaa !74
  %28 = getelementptr inbounds nuw %"class.icu_77::RegexMatcher", ptr %5, i32 0, i32 29
  store i32 0, ptr %28, align 8, !tbaa !75
  %29 = getelementptr inbounds nuw %"class.icu_77::RegexMatcher", ptr %5, i32 0, i32 30
  store i32 0, ptr %29, align 4, !tbaa !76
  %30 = getelementptr inbounds nuw %"class.icu_77::RegexMatcher", ptr %5, i32 0, i32 31
  store i32 0, ptr %30, align 8, !tbaa !77
  %31 = getelementptr inbounds nuw %"class.icu_77::RegexMatcher", ptr %5, i32 0, i32 32
  store i32 8000000, ptr %31, align 4, !tbaa !78
  %32 = getelementptr inbounds nuw %"class.icu_77::RegexMatcher", ptr %5, i32 0, i32 33
  store ptr null, ptr %32, align 8, !tbaa !79
  %33 = getelementptr inbounds nuw %"class.icu_77::RegexMatcher", ptr %5, i32 0, i32 34
  store ptr null, ptr %33, align 8, !tbaa !80
  %34 = getelementptr inbounds nuw %"class.icu_77::RegexMatcher", ptr %5, i32 0, i32 35
  store ptr null, ptr %34, align 8, !tbaa !81
  %35 = getelementptr inbounds nuw %"class.icu_77::RegexMatcher", ptr %5, i32 0, i32 36
  store ptr null, ptr %35, align 8, !tbaa !82
  %36 = getelementptr inbounds nuw %"class.icu_77::RegexMatcher", ptr %5, i32 0, i32 38
  store i8 0, ptr %36, align 1, !tbaa !83
  %37 = load ptr, ptr %4, align 8, !tbaa !22
  %38 = load i32, ptr %37, align 4, !tbaa !15
  %39 = getelementptr inbounds nuw %"class.icu_77::RegexMatcher", ptr %5, i32 0, i32 39
  store i32 %38, ptr %39, align 4, !tbaa !29
  %40 = getelementptr inbounds nuw %"class.icu_77::RegexMatcher", ptr %5, i32 0, i32 28
  %41 = getelementptr inbounds [8 x i64], ptr %40, i64 0, i64 0
  %42 = getelementptr inbounds nuw %"class.icu_77::RegexMatcher", ptr %5, i32 0, i32 27
  store ptr %41, ptr %42, align 8, !tbaa !84
  %43 = getelementptr inbounds nuw %"class.icu_77::RegexMatcher", ptr %5, i32 0, i32 40
  store ptr null, ptr %43, align 8, !tbaa !85
  %44 = getelementptr inbounds nuw %"class.icu_77::RegexMatcher", ptr %5, i32 0, i32 41
  store ptr null, ptr %44, align 8, !tbaa !86
  %45 = getelementptr inbounds nuw %"class.icu_77::RegexMatcher", ptr %5, i32 0, i32 25
  store ptr null, ptr %45, align 8, !tbaa !73
  %46 = getelementptr inbounds nuw %"class.icu_77::RegexMatcher", ptr %5, i32 0, i32 4
  store ptr null, ptr %46, align 8, !tbaa !87
  %47 = getelementptr inbounds nuw %"class.icu_77::RegexMatcher", ptr %5, i32 0, i32 5
  store ptr null, ptr %47, align 8, !tbaa !88
  %48 = getelementptr inbounds nuw %"class.icu_77::RegexMatcher", ptr %5, i32 0, i32 3
  store ptr null, ptr %48, align 8, !tbaa !89
  %49 = getelementptr inbounds nuw %"class.icu_77::RegexMatcher", ptr %5, i32 0, i32 6
  store i64 0, ptr %49, align 8, !tbaa !90
  %50 = getelementptr inbounds nuw %"class.icu_77::RegexMatcher", ptr %5, i32 0, i32 37
  store i8 0, ptr %50, align 8, !tbaa !91
  ret void
}

; Function Attrs: inlinehint mustprogress nounwind uwtable
define linkonce_odr void @_ZN6icu_777UObjectC2Ev(ptr noundef nonnull align 8 dereferenceable(8) %0) unnamed_addr #2 comdat align 2 {
  %2 = alloca ptr, align 8
  store ptr %0, ptr %2, align 8, !tbaa !52
  %3 = load ptr, ptr %2, align 8
  store ptr getelementptr inbounds inrange(-16, 24) ({ [5 x ptr] }, ptr @_ZTVN6icu_777UObjectE, i32 0, i32 0, i32 2), ptr %3, align 8, !tbaa !27
  ret void
}

; Function Attrs: mustprogress uwtable
define void @_ZN6icu_7712RegexMatcherC2EPKNS_12RegexPatternE(ptr noundef nonnull align 8 dereferenceable(336) %0, ptr noundef %1) unnamed_addr #1 align 2 personality ptr @__gxx_personality_v0 {
  %3 = alloca ptr, align 8
  %4 = alloca ptr, align 8
  %5 = alloca ptr, align 8
  %6 = alloca i32, align 4
  store ptr %0, ptr %3, align 8, !tbaa !23
  store ptr %1, ptr %4, align 8, !tbaa !25
  %7 = load ptr, ptr %3, align 8
  call void @_ZN6icu_777UObjectC2Ev(ptr noundef nonnull align 8 dereferenceable(8) %7) #11
  store ptr getelementptr inbounds inrange(-16, 496) ({ [64 x ptr] }, ptr @_ZTVN6icu_7712RegexMatcherE, i32 0, i32 0, i32 2), ptr %7, align 8, !tbaa !27
  %8 = getelementptr inbounds nuw %"class.icu_77::RegexMatcher", ptr %7, i32 0, i32 39
  store i32 0, ptr %8, align 4, !tbaa !29
  %9 = getelementptr inbounds nuw %"class.icu_77::RegexMatcher", ptr %7, i32 0, i32 39
  invoke void @_ZN6icu_7712RegexMatcher4initER10UErrorCode(ptr noundef nonnull align 8 dereferenceable(336) %7, ptr noundef nonnull align 4 dereferenceable(4) %9)
          to label %10 unwind label %17

10:                                               ; preds = %2
  %11 = getelementptr inbounds nuw %"class.icu_77::RegexMatcher", ptr %7, i32 0, i32 39
  %12 = load i32, ptr %11, align 4, !tbaa !29
  %13 = invoke noundef signext i8 @_ZL9U_FAILURE10UErrorCode(i32 noundef %12)
          to label %14 unwind label %17

14:                                               ; preds = %10
  %15 = icmp ne i8 %13, 0
  br i1 %15, label %16, label %21

16:                                               ; preds = %14
  br label %33

17:                                               ; preds = %26, %10, %2
  %18 = landingpad { ptr, i32 }
          cleanup
  %19 = extractvalue { ptr, i32 } %18, 0
  store ptr %19, ptr %5, align 8
  %20 = extractvalue { ptr, i32 } %18, 1
  store i32 %20, ptr %6, align 4
  call void @_ZN6icu_777UObjectD2Ev(ptr noundef nonnull align 8 dereferenceable(8) %7) #11
  br label %34

21:                                               ; preds = %14
  %22 = load ptr, ptr %4, align 8, !tbaa !25
  %23 = icmp eq ptr %22, null
  br i1 %23, label %24, label %26

24:                                               ; preds = %21
  %25 = getelementptr inbounds nuw %"class.icu_77::RegexMatcher", ptr %7, i32 0, i32 39
  store i32 1, ptr %25, align 4, !tbaa !29
  br label %33

26:                                               ; preds = %21
  %27 = load ptr, ptr %4, align 8, !tbaa !25
  %28 = getelementptr inbounds nuw %"class.icu_77::RegexMatcher", ptr %7, i32 0, i32 1
  store ptr %27, ptr %28, align 8, !tbaa !38
  %29 = load ptr, ptr @_ZN6icu_7715RegexStaticSets11gStaticSetsE, align 8, !tbaa !39
  %30 = getelementptr inbounds nuw %"class.icu_77::RegexStaticSets", ptr %29, i32 0, i32 6
  %31 = load ptr, ptr %30, align 8, !tbaa !41
  %32 = getelementptr inbounds nuw %"class.icu_77::RegexMatcher", ptr %7, i32 0, i32 39
  invoke void @_ZN6icu_7712RegexMatcher5init2EP5UTextR10UErrorCode(ptr noundef nonnull align 8 dereferenceable(336) %7, ptr noundef %31, ptr noundef nonnull align 4 dereferenceable(4) %32)
          to label %33 unwind label %17

33:                                               ; preds = %16, %24, %26
  ret void

34:                                               ; preds = %17
  %35 = load ptr, ptr %5, align 8
  %36 = load i32, ptr %6, align 4
  %37 = insertvalue { ptr, i32 } poison, ptr %35, 0
  %38 = insertvalue { ptr, i32 } %37, i32 %36, 1
  resume { ptr, i32 } %38
}