; Function Attrs: mustprogress uwtable
define void @_ZN6icu_7712RegexMatcherC2EPKNS_12RegexPatternE(ptr noundef nonnull align 8 dereferenceable(336) initializes((0, 24), (56, 60), (64, 131), (136, 170), (176, 192), (264, 312), (313, 314), (316, 320)) %0, ptr noundef %1) unnamed_addr #1 align 2 personality ptr @__gxx_personality_v0 {
  store ptr getelementptr inbounds nuw inrange(-16, 496) (i8, ptr @_ZTVN6icu_7712RegexMatcherE, i64 16), ptr %0, align 8, !tbaa !15
  %3 = getelementptr inbounds nuw i8, ptr %0, i64 316
  %4 = getelementptr inbounds nuw i8, ptr %0, i64 8
  %5 = getelementptr inbounds nuw i8, ptr %0, i64 56
  store i32 0, ptr %5, align 8, !tbaa !17
  %6 = getelementptr inbounds nuw i8, ptr %0, i64 64
  %7 = getelementptr inbounds nuw i8, ptr %0, i64 129
  tail call void @llvm.memset.p0.i64(ptr noundef nonnull align 8 dereferenceable(16) %4, i8 0, i64 16, i1 false)
  tail call void @llvm.memset.p0.i64(ptr noundef nonnull align 8 dereferenceable(65) %6, i8 0, i64 65, i1 false)
  store i8 1, ptr %7, align 1, !tbaa !28
  %8 = getelementptr inbounds nuw i8, ptr %0, i64 130
  store i8 0, ptr %8, align 2, !tbaa !29
  %9 = getelementptr inbounds nuw i8, ptr %0, i64 136
  %10 = getelementptr inbounds nuw i8, ptr %0, i64 152
  tail call void @llvm.memset.p0.i64(ptr noundef nonnull align 8 dereferenceable(16) %9, i8 0, i64 16, i1 false)
  store i64 -1, ptr %10, align 8, !tbaa !30
  %11 = getelementptr inbounds nuw i8, ptr %0, i64 160
  store i64 0, ptr %11, align 8, !tbaa !31
  %12 = getelementptr inbounds nuw i8, ptr %0, i64 168
  store i8 0, ptr %12, align 8, !tbaa !32
  %13 = getelementptr inbounds nuw i8, ptr %0, i64 169
  store i8 0, ptr %13, align 1, !tbaa !33
  %14 = getelementptr inbounds nuw i8, ptr %0, i64 176
  %15 = getelementptr inbounds nuw i8, ptr %0, i64 264
  store i32 0, ptr %15, align 8, !tbaa !34
  %16 = getelementptr inbounds nuw i8, ptr %0, i64 268
  store i32 0, ptr %16, align 4, !tbaa !35
  %17 = getelementptr inbounds nuw i8, ptr %0, i64 272
  store i32 0, ptr %17, align 8, !tbaa !36
  %18 = getelementptr inbounds nuw i8, ptr %0, i64 276
  tail call void @llvm.memset.p0.i64(ptr noundef nonnull align 8 dereferenceable(16) %14, i8 0, i64 16, i1 false)
  store i32 8000000, ptr %18, align 4, !tbaa !37
  %19 = getelementptr inbounds nuw i8, ptr %0, i64 280
  %20 = getelementptr inbounds nuw i8, ptr %0, i64 313
  store i8 0, ptr %20, align 1, !tbaa !38
  tail call void @llvm.memset.p0.i64(ptr noundef nonnull align 8 dereferenceable(32) %19, i8 0, i64 32, i1 false)
  store i32 0, ptr %3, align 4, !tbaa !39
  %21 = getelementptr inbounds nuw i8, ptr %0, i64 200
  %22 = getelementptr inbounds nuw i8, ptr %0, i64 192
  store ptr %21, ptr %22, align 8, !tbaa !40
  %23 = getelementptr inbounds nuw i8, ptr %0, i64 320
  %24 = getelementptr inbounds nuw i8, ptr %0, i64 24
  %25 = getelementptr inbounds nuw i8, ptr %0, i64 312
  store i8 0, ptr %25, align 8, !tbaa !41
  tail call void @llvm.memset.p0.i64(ptr noundef nonnull align 8 dereferenceable(32) %24, i8 0, i64 32, i1 false)
  tail call void @llvm.memset.p0.i64(ptr noundef nonnull align 8 dereferenceable(16) %23, i8 0, i64 16, i1 false)
  %26 = icmp eq ptr %1, null
  br i1 %26, label %29, label %30

27:                                               ; preds = %30
  %28 = landingpad { ptr, i32 }
          cleanup
  tail call void @_ZN6icu_777UObjectD2Ev(ptr noundef nonnull align 8 dereferenceable(8) %0) #21
  resume { ptr, i32 } %28

29:                                               ; preds = %2
  store i32 1, ptr %3, align 4, !tbaa !39
  br label %34

30:                                               ; preds = %2
  store ptr %1, ptr %4, align 8, !tbaa !42
  %31 = load ptr, ptr @_ZN6icu_7715RegexStaticSets11gStaticSetsE, align 8, !tbaa !43
  %32 = getelementptr inbounds nuw i8, ptr %31, i64 3832
  %33 = load ptr, ptr %32, align 8, !tbaa !45
  invoke void @_ZN6icu_7712RegexMatcher5init2EP5UTextR10UErrorCode(ptr noundef nonnull align 8 dereferenceable(336) %0, ptr noundef %33, ptr noundef nonnull align 4 dereferenceable(4) %3)
          to label %34 unwind label %27

34:                                               ; preds = %30, %29
  ret void
}